; Function Attrs: mustprogress nofree norecurse nosync nounwind willreturn memory(argmem: readwrite) uwtable
define internal fastcc void @image2yuvconfig(ptr nocapture noundef readonly %0, ptr nocapture noundef writeonly %1) unnamed_addr #1 {
  %3 = getelementptr inbounds nuw i8, ptr %0, i64 64
  %4 = load ptr, ptr %3, align 8
  %5 = getelementptr inbounds nuw i8, ptr %1, i64 40
  store ptr %4, ptr %5, align 8
  %6 = getelementptr inbounds i8, ptr %0, i64 72
  %7 = load ptr, ptr %6, align 8
  %8 = getelementptr inbounds i8, ptr %1, i64 48
  store ptr %7, ptr %8, align 8
  %9 = getelementptr inbounds i8, ptr %0, i64 80
  %10 = load ptr, ptr %9, align 8
  %11 = getelementptr inbounds i8, ptr %1, i64 56
  store ptr %10, ptr %11, align 8
  %12 = getelementptr inbounds nuw i8, ptr %0, i64 40
  %13 = load i32, ptr %12, align 8
  %14 = getelementptr inbounds nuw i8, ptr %1, i64 16
  store i32 %13, ptr %14, align 8
  %15 = getelementptr inbounds nuw i8, ptr %0, i64 44
  %16 = load i32, ptr %15, align 4
  %17 = getelementptr inbounds nuw i8, ptr %1, i64 24
  store i32 %16, ptr %17, align 8
  %18 = getelementptr inbounds nuw i8, ptr %0, i64 48
  %19 = load i32, ptr %18, align 8
  %20 = getelementptr inbounds nuw i8, ptr %1, i64 180
  store i32 %19, ptr %20, align 4
  %21 = getelementptr inbounds nuw i8, ptr %0, i64 52
  %22 = load i32, ptr %21, align 4
  %23 = getelementptr inbounds nuw i8, ptr %1, i64 184
  store i32 %22, ptr %23, align 8
  %24 = getelementptr inbounds nuw i8, ptr %0, i64 28
  %25 = load i32, ptr %24, align 4
  store i32 %25, ptr %1, align 8
  %26 = getelementptr inbounds nuw i8, ptr %0, i64 32
  %27 = load i32, ptr %26, align 8
  %28 = getelementptr inbounds nuw i8, ptr %1, i64 8
  store i32 %27, ptr %28, align 8
  %29 = getelementptr inbounds nuw i8, ptr %0, i64 56
  %30 = load i32, ptr %29, align 8
  %31 = icmp eq i32 %30, 1
  br i1 %31, label %32, label %35

32:                                               ; preds = %2
  %33 = add nsw i32 %25, 1
  %34 = sdiv i32 %33, 2
  br label %35

35:                                               ; preds = %2, %32
  %36 = phi i32 [ %34, %32 ], [ %25, %2 ]
  %37 = getelementptr inbounds nuw i8, ptr %1, i64 4
  store i32 %36, ptr %37, align 4
  %38 = getelementptr inbounds nuw i8, ptr %0, i64 60
  %39 = load i32, ptr %38, align 4
  %40 = icmp eq i32 %39, 1
  br i1 %40, label %41, label %44

41:                                               ; preds = %35
  %42 = add nsw i32 %27, 1
  %43 = sdiv i32 %42, 2
  br label %44

44:                                               ; preds = %35, %41
  %45 = phi i32 [ %43, %41 ], [ %27, %35 ]
  %46 = getelementptr inbounds i8, ptr %1, i64 12
  store i32 %45, ptr %46, align 4
  %47 = getelementptr inbounds i8, ptr %1, i64 20
  store i32 %36, ptr %47, align 4
  %48 = getelementptr inbounds i8, ptr %1, i64 28
  store i32 %45, ptr %48, align 4
  %49 = getelementptr inbounds nuw i8, ptr %0, i64 88
  %50 = load i32, ptr %49, align 8
  %51 = getelementptr inbounds nuw i8, ptr %1, i64 32
  store i32 %50, ptr %51, align 8
  %52 = getelementptr inbounds i8, ptr %0, i64 92
  %53 = load i32, ptr %52, align 4
  %54 = getelementptr inbounds i8, ptr %1, i64 36
  store i32 %53, ptr %54, align 4
  %55 = getelementptr inbounds nuw i8, ptr %0, i64 4
  %56 = load i32, ptr %55, align 4
  %57 = getelementptr inbounds nuw i8, ptr %1, i64 156
  store i32 %56, ptr %57, align 4
  %58 = getelementptr inbounds nuw i8, ptr %0, i64 8
  %59 = load i32, ptr %58, align 8
  %60 = getelementptr inbounds nuw i8, ptr %1, i64 160
  store i32 %59, ptr %60, align 8
  %61 = getelementptr inbounds nuw i8, ptr %0, i64 12
  %62 = load i32, ptr %61, align 4
  %63 = getelementptr inbounds nuw i8, ptr %1, i64 164
  store i32 %62, ptr %63, align 4
  %64 = getelementptr inbounds nuw i8, ptr %0, i64 16
  %65 = load i32, ptr %64, align 8
  %66 = trunc i32 %65 to i8
  %67 = getelementptr inbounds nuw i8, ptr %1, i64 168
  store i8 %66, ptr %67, align 8
  %68 = getelementptr inbounds nuw i8, ptr %0, i64 20
  %69 = load i32, ptr %68, align 4
  %70 = getelementptr inbounds nuw i8, ptr %1, i64 172
  store i32 %69, ptr %70, align 4
  %71 = getelementptr inbounds nuw i8, ptr %0, i64 24
  %72 = load i32, ptr %71, align 8
  %73 = getelementptr inbounds nuw i8, ptr %1, i64 176
  store i32 %72, ptr %73, align 8
  %74 = load i32, ptr %0, align 8
  %75 = and i32 %74, 2048
  %.not = icmp eq i32 %75, 0
  br i1 %.not, label %88, label %76

76:                                               ; preds = %44
  %77 = ptrtoint ptr %4 to i64
  %78 = lshr i64 %77, 1
  %79 = inttoptr i64 %78 to ptr
  store ptr %79, ptr %5, align 8
  %80 = ptrtoint ptr %7 to i64
  %81 = lshr i64 %80, 1
  %82 = inttoptr i64 %81 to ptr
  store ptr %82, ptr %8, align 8
  %83 = ptrtoint ptr %10 to i64
  %84 = lshr i64 %83, 1
  %85 = inttoptr i64 %84 to ptr
  store ptr %85, ptr %11, align 8
  %86 = ashr i32 %50, 1
  store i32 %86, ptr %51, align 8
  %87 = ashr i32 %53, 1
  store i32 %87, ptr %54, align 4
  br label %88

88:                                               ; preds = %44, %76
  %89 = phi i32 [ %86, %76 ], [ %50, %44 ]
  %.sink = phi i32 [ 8, %76 ], [ 0, %44 ]
  %90 = getelementptr inbounds nuw i8, ptr %1, i64 192
  store i32 %.sink, ptr %90, align 8
  %91 = load i32, ptr %24, align 4
  %92 = add i32 %91, 31
  %93 = and i32 %92, -32
  %94 = sub nsw i32 %89, %93
  %95 = sdiv i32 %94, 2
  %96 = tail call i32 @llvm.smax.i32(i32 %95, i32 0)
  %97 = getelementptr inbounds nuw i8, ptr %1, i64 128
  store i32 %96, ptr %97, align 8
  %98 = load i32, ptr %29, align 8
  %99 = getelementptr inbounds nuw i8, ptr %1, i64 144
  store i32 %98, ptr %99, align 8
  %100 = load i32, ptr %38, align 4
  %101 = getelementptr inbounds nuw i8, ptr %1, i64 148
  store i32 %100, ptr %101, align 4
  %102 = getelementptr inbounds nuw i8, ptr %0, i64 152
  %103 = load ptr, ptr %102, align 8
  %104 = getelementptr inbounds nuw i8, ptr %1, i64 200
  store ptr %103, ptr %104, align 8
  ret void
}